target datalayout = "e-m:e-p270:32:32-p271:32:32-p272:64:64-i64:64-i128:128-f80:128-n8:16:32:64-S128"
target triple = "x86_64-pc-linux-gnu"

%"class.LIEF::MachO::Relocation" = type { %"class.LIEF::Relocation.base", ptr, i8, i32, ptr, ptr }
%"class.LIEF::Relocation.base" = type <{ %"class.LIEF::Object", i64, i8 }>
%"class.LIEF::Object" = type { ptr }
%"class.LIEF::Relocation" = type <{ %"class.LIEF::Object", i64, i8, [7 x i8] }>

@_ZTVN4LIEF10RelocationE = external unnamed_addr constant { [15 x ptr] }, align 8

; Function Attrs: mustprogress nounwind uwtable
define linkonce_odr hidden void @_ZN4LIEF10RelocationC2Ev(ptr noundef nonnull align 8 dereferenceable(17) %0) unnamed_addr #0 comdat align 2 {
  %2 = alloca ptr, align 8
  store ptr %0, ptr %2, align 8, !tbaa !23
  %3 = load ptr, ptr %2, align 8
  call void @_ZN4LIEF6ObjectC2Ev(ptr noundef nonnull align 8 dereferenceable(8) %3)
  store ptr getelementptr inbounds inrange(-16, 104) ({ [15 x ptr] }, ptr @_ZTVN4LIEF10RelocationE, i32 0, i32 0, i32 2), ptr %3, align 8, !tbaa !8
  %4 = getelementptr inbounds nuw %"class.LIEF::Relocation", ptr %3, i32 0, i32 1
  store i64 0, ptr %4, align 8, !tbaa !27
  %5 = getelementptr inbounds nuw %"class.LIEF::Relocation", ptr %3, i32 0, i32 2
  store i8 0, ptr %5, align 8, !tbaa !28
  ret void
}

; Function Attrs: mustprogress nounwind uwtable
define void @_ZN4LIEF5MachO10RelocationC2Emh(ptr noundef nonnull align 8 dereferenceable(56) %0, i64 noundef %1, i8 noundef zeroext %2) unnamed_addr #0 align 2 {
  %4 = alloca ptr, align 8
  %5 = alloca i64, align 8
  %6 = alloca i8, align 1
  store ptr %0, ptr %4, align 8, !tbaa !3
  store i64 %1, ptr %5, align 8, !tbaa !25
  store i8 %2, ptr %6, align 1, !tbaa !26
  %7 = load ptr, ptr %4, align 8
  call void @_ZN4LIEF10RelocationC2Ev(ptr noundef nonnull align 8 dereferenceable(17) %7)
  store ptr getelementptr inbounds inrange(-16, 160) ({ [22 x ptr] }, ptr @_ZTVN4LIEF5MachO10RelocationE, i32 0, i32 0, i32 2), ptr %7, align 8, !tbaa !8
  %8 = getelementptr inbounds nuw %"class.LIEF::MachO::Relocation", ptr %7, i32 0, i32 1
  store ptr null, ptr %8, align 8, !tbaa !10
  %9 = getelementptr inbounds nuw %"class.LIEF::MachO::Relocation", ptr %7, i32 0, i32 2
  store i8 0, ptr %9, align 8, !tbaa !19
  %10 = getelementptr inbounds nuw %"class.LIEF::MachO::Relocation", ptr %7, i32 0, i32 3
  store i32 -1, ptr %10, align 4, !tbaa !20
  %11 = getelementptr inbounds nuw %"class.LIEF::MachO::Relocation", ptr %7, i32 0, i32 4
  store ptr null, ptr %11, align 8, !tbaa !21
  %12 = getelementptr inbounds nuw %"class.LIEF::MachO::Relocation", ptr %7, i32 0, i32 5
  store ptr null, ptr %12, align 8, !tbaa !22
  %13 = load i64, ptr %5, align 8, !tbaa !25
  %14 = getelementptr inbounds nuw %"class.LIEF::Relocation", ptr %7, i32 0, i32 1
  store i64 %13, ptr %14, align 8, !tbaa !27
  %15 = load i8, ptr %6, align 1, !tbaa !26
  %16 = getelementptr inbounds nuw %"class.LIEF::MachO::Relocation", ptr %7, i32 0, i32 2
  store i8 %15, ptr %16, align 8, !tbaa !19
  ret void
}