; Function Attrs: mustprogress nounwind uwtable
define void @_ZN4LIEF5MachO10RelocationC2Emh(ptr noundef nonnull align 8 dereferenceable(56) %0, i64 noundef %1, i8 noundef zeroext %2) unnamed_addr #0 align 2 {
  tail call void @_ZN4LIEF6ObjectC2Ev(ptr noundef nonnull align 8 dereferenceable(17) %0) #25
  %4 = getelementptr inbounds nuw i8, ptr %0, i64 8
  %5 = getelementptr inbounds nuw i8, ptr %0, i64 16
  store i8 0, ptr %5, align 8, !tbaa !19
  store ptr getelementptr inbounds nuw inrange(-16, 160) (i8, ptr @_ZTVN4LIEF5MachO10RelocationE, i64 16), ptr %0, align 8, !tbaa !3
  %6 = getelementptr inbounds nuw i8, ptr %0, i64 24
  store ptr null, ptr %6, align 8, !tbaa !6
  %7 = getelementptr inbounds nuw i8, ptr %0, i64 32
  %8 = getelementptr inbounds nuw i8, ptr %0, i64 36
  store i32 -1, ptr %8, align 4, !tbaa !18
  %9 = getelementptr inbounds nuw i8, ptr %0, i64 40
  tail call void @llvm.memset.p0.i64(ptr noundef nonnull align 8 dereferenceable(16) %9, i8 0, i64 16, i1 false)
  store i64 %1, ptr %4, align 8, !tbaa !20
  store i8 %2, ptr %7, align 8, !tbaa !17
  ret void
}